; Function Attrs: null_pointer_is_valid sspstrong uwtable
define internal fastcc range(i32 -1, 18) i32 @decode_mdt_safi(ptr noundef readonly captures(none) %0, ptr noundef %1, ptr noundef %2, i32 noundef %3) unnamed_addr #0 {
  %5 = tail call zeroext i8 @tvb_get_uint8(ptr noundef %2, i32 noundef %3)
  %.not = icmp eq i8 %5, -128
  br i1 %.not, label %6, label %19

6:                                                ; preds = %4
  %7 = add i32 %3, 1
  %8 = load i32, ptr @hf_bgp_mdt_nlri_safi_rd, align 4
  %9 = tail call ptr @proto_tree_add_item(ptr noundef %1, i32 noundef %8, ptr noundef %2, i32 noundef %7, i32 noundef 8, i32 noundef 0)
  %10 = getelementptr inbounds nuw i8, ptr %0, i64 408
  %11 = load ptr, ptr %10, align 8
  %12 = tail call ptr @decode_bgp_rd(ptr noundef %11, ptr noundef %2, i32 noundef %7)
  tail call void (ptr, ptr, ...) @proto_item_set_text(ptr noundef %9, ptr noundef nonnull @.str.1852, ptr noundef %12)
  %13 = add i32 %3, 9
  %14 = load i32, ptr @hf_bgp_mdt_nlri_safi_ipv4_addr, align 4
  %15 = tail call ptr @proto_tree_add_item(ptr noundef %1, i32 noundef %14, ptr noundef %2, i32 noundef %13, i32 noundef 4, i32 noundef 0)
  %16 = add i32 %3, 13
  %17 = load i32, ptr @hf_bgp_mdt_nlri_safi_group_addr, align 4
  %18 = tail call ptr @proto_tree_add_item(ptr noundef %1, i32 noundef %17, ptr noundef %2, i32 noundef %16, i32 noundef 4, i32 noundef 0)
  br label %19

19:                                               ; preds = %4, %6
  %.0 = phi i32 [ 17, %6 ], [ -1, %4 ]
  ret i32 %.0
}